target datalayout = "e-m:e-p270:32:32-p271:32:32-p272:64:64-i64:64-i128:128-f80:128-n8:16:32:64-S128"
target triple = "x86_64-pc-linux-gnu"

%struct.SurfaceDataRasInfo = type { %struct.SurfaceDataBounds, ptr, i32, i32, i32, i32, ptr, ptr, ptr, ptr, ptr, ptr, i32, %union.anon.0 }
%struct.SurfaceDataBounds = type { i32, i32, i32, i32 }
%union.anon.0 = type { ptr, [56 x i8] }

; Function Attrs: nounwind uwtable
define hidden void @UshortGrayToByteGrayConvert(ptr noundef %0, ptr noundef %1, i32 noundef %2, i32 noundef %3, ptr noundef %4, ptr noundef %5, ptr noundef %6, ptr noundef %7) #1 {
  %9 = alloca ptr, align 8
  %10 = alloca ptr, align 8
  %11 = alloca i32, align 4
  %12 = alloca i32, align 4
  %13 = alloca ptr, align 8
  %14 = alloca ptr, align 8
  %15 = alloca ptr, align 8
  %16 = alloca ptr, align 8
  %17 = alloca ptr, align 8
  %18 = alloca ptr, align 8
  %19 = alloca i32, align 4
  %20 = alloca i32, align 4
  %21 = alloca i32, align 4
  %22 = alloca i32, align 4
  store ptr %0, ptr %9, align 8
  store ptr %1, ptr %10, align 8
  store i32 %2, ptr %11, align 4
  store i32 %3, ptr %12, align 4
  store ptr %4, ptr %13, align 8
  store ptr %5, ptr %14, align 8
  store ptr %6, ptr %15, align 8
  store ptr %7, ptr %16, align 8
  br label %23

23:                                               ; preds = %8
  %24 = load ptr, ptr %9, align 8
  store ptr %24, ptr %17, align 8
  %25 = load ptr, ptr %10, align 8
  store ptr %25, ptr %18, align 8
  %26 = load ptr, ptr %13, align 8
  %27 = getelementptr inbounds %struct.SurfaceDataRasInfo, ptr %26, i32 0, i32 4
  %28 = load i32, ptr %27, align 8
  store i32 %28, ptr %19, align 4
  %29 = load ptr, ptr %14, align 8
  %30 = getelementptr inbounds %struct.SurfaceDataRasInfo, ptr %29, i32 0, i32 4
  %31 = load i32, ptr %30, align 8
  store i32 %31, ptr %20, align 4
  %32 = load i32, ptr %11, align 4
  %33 = mul i32 %32, 2
  %34 = load i32, ptr %19, align 4
  %35 = sub i32 %34, %33
  store i32 %35, ptr %19, align 4
  %36 = load i32, ptr %11, align 4
  %37 = mul i32 %36, 1
  %38 = load i32, ptr %20, align 4
  %39 = sub i32 %38, %37
  store i32 %39, ptr %20, align 4
  br label %40

40:                                               ; preds = %79, %23
  %41 = load i32, ptr %11, align 4
  store i32 %41, ptr %21, align 4
  br label %42

42:                                               ; preds = %62, %40
  br label %43

43:                                               ; preds = %42
  %44 = load ptr, ptr %17, align 8
  %45 = getelementptr inbounds i16, ptr %44, i64 0
  %46 = load i16, ptr %45, align 2
  %47 = zext i16 %46 to i32
  %48 = ashr i32 %47, 8
  store i32 %48, ptr %22, align 4
  %49 = load i32, ptr %22, align 4
  %50 = trunc i32 %49 to i8
  %51 = load ptr, ptr %18, align 8
  %52 = getelementptr inbounds i8, ptr %51, i64 0
  store i8 %50, ptr %52, align 1
  br label %53

53:                                               ; preds = %43
  %54 = load ptr, ptr %17, align 8
  %55 = ptrtoint ptr %54 to i64
  %56 = add nsw i64 %55, 2
  %57 = inttoptr i64 %56 to ptr
  store ptr %57, ptr %17, align 8
  %58 = load ptr, ptr %18, align 8
  %59 = ptrtoint ptr %58 to i64
  %60 = add nsw i64 %59, 1
  %61 = inttoptr i64 %60 to ptr
  store ptr %61, ptr %18, align 8
  br label %62

62:                                               ; preds = %53
  %63 = load i32, ptr %21, align 4
  %64 = add i32 %63, -1
  store i32 %64, ptr %21, align 4
  %65 = icmp ugt i32 %64, 0
  br i1 %65, label %42, label %66, !llvm.loop !13

66:                                               ; preds = %62
  %67 = load ptr, ptr %17, align 8
  %68 = ptrtoint ptr %67 to i64
  %69 = load i32, ptr %19, align 4
  %70 = sext i32 %69 to i64
  %71 = add nsw i64 %68, %70
  %72 = inttoptr i64 %71 to ptr
  store ptr %72, ptr %17, align 8
  %73 = load ptr, ptr %18, align 8
  %74 = ptrtoint ptr %73 to i64
  %75 = load i32, ptr %20, align 4
  %76 = sext i32 %75 to i64
  %77 = add nsw i64 %74, %76
  %78 = inttoptr i64 %77 to ptr
  store ptr %78, ptr %18, align 8
  br label %79

79:                                               ; preds = %66
  %80 = load i32, ptr %12, align 4
  %81 = add i32 %80, -1
  store i32 %81, ptr %12, align 4
  %82 = icmp ugt i32 %81, 0
  br i1 %82, label %40, label %83, !llvm.loop !14

83:                                               ; preds = %79
  br label %84

84:                                               ; preds = %83
  ret void
}