; Function Attrs: nofree norecurse nosync nounwind memory(readwrite, inaccessiblemem: none) uwtable
define hidden void @UshortGrayToByteGrayConvert(ptr noundef %0, ptr noundef %1, i32 noundef %2, i32 noundef %3, ptr nocapture noundef readonly %4, ptr nocapture noundef readonly %5, ptr nocapture readnone %6, ptr nocapture readnone %7) #1 {
  %9 = getelementptr inbounds i8, ptr %4, i64 32
  %10 = load i32, ptr %9, align 8
  %11 = getelementptr inbounds i8, ptr %5, i64 32
  %12 = load i32, ptr %11, align 8
  %13 = shl i32 %2, 1
  %14 = sub i32 %10, %13
  %15 = sub i32 %12, %2
  %16 = sext i32 %14 to i64
  %17 = sext i32 %15 to i64
  br label %18

18:                                               ; preds = %30, %8
  %.021 = phi ptr [ %0, %8 ], [ %32, %30 ]
  %.020 = phi ptr [ %1, %8 ], [ %34, %30 ]
  %.0 = phi i32 [ %3, %8 ], [ %35, %30 ]
  br label %19

19:                                               ; preds = %19, %18
  %.122 = phi ptr [ %.021, %18 ], [ %25, %19 ]
  %.1 = phi ptr [ %.020, %18 ], [ %28, %19 ]
  %.019 = phi i32 [ %2, %18 ], [ %29, %19 ]
  %20 = load i16, ptr %.122, align 2
  %21 = lshr i16 %20, 8
  %22 = trunc nuw i16 %21 to i8
  store i8 %22, ptr %.1, align 1
  %23 = ptrtoint ptr %.122 to i64
  %24 = add nsw i64 %23, 2
  %25 = inttoptr i64 %24 to ptr
  %26 = ptrtoint ptr %.1 to i64
  %27 = add nsw i64 %26, 1
  %28 = inttoptr i64 %27 to ptr
  %29 = add i32 %.019, -1
  %.not = icmp eq i32 %29, 0
  br i1 %.not, label %30, label %19, !llvm.loop !13

30:                                               ; preds = %19
  %31 = add nsw i64 %24, %16
  %32 = inttoptr i64 %31 to ptr
  %33 = add nsw i64 %27, %17
  %34 = inttoptr i64 %33 to ptr
  %35 = add i32 %.0, -1
  %.not24 = icmp eq i32 %35, 0
  br i1 %.not24, label %36, label %18, !llvm.loop !14

36:                                               ; preds = %30
  ret void
}